target datalayout = "e-m:e-p270:32:32-p271:32:32-p272:64:64-i64:64-i128:128-f80:128-n8:16:32:64-S128"
target triple = "x86_64-pc-linux-gnu"

%struct.darktable_t = type { %struct.dt_codepath_t, i32, i32, ptr, ptr, ptr, ptr, ptr, ptr, ptr, ptr, ptr, ptr, ptr, ptr, ptr, ptr, ptr, ptr, ptr, ptr, ptr, ptr, ptr, ptr, ptr, ptr, ptr, ptr, ptr, [64 x %struct.dt_pthread_mutex_t], %struct.dt_pthread_mutex_t, %struct.dt_pthread_mutex_t, %struct.dt_pthread_mutex_t, %struct.dt_pthread_mutex_t, %struct.dt_pthread_mutex_t, ptr, ptr, ptr, ptr, ptr, ptr, ptr, ptr, ptr, ptr, ptr, ptr, ptr, %struct.dt_lua_state_t, ptr, double, ptr, i32, [47 x i32], i32, i32, ptr, ptr, %struct.dt_sys_resources_t, %struct.dt_backthumb_t, %struct.dt_gimp_t }
%struct.dt_codepath_t = type { i8, [3 x i8] }
%struct.dt_pthread_mutex_t = type { %union.pthread_mutex_t }
%union.pthread_mutex_t = type { %struct.__pthread_mutex_s }
%struct.__pthread_mutex_s = type { i32, i32, i32, i32, i32, i16, i16, %struct.__pthread_internal_list }
%struct.__pthread_internal_list = type { ptr, ptr }
%struct.dt_lua_state_t = type { i32 }
%struct.dt_sys_resources_t = type { i64, i64, ptr, ptr, i32 }
%struct.dt_backthumb_t = type { double, double, i32, i32, i32, i32 }
%struct.dt_gimp_t = type { i32, ptr, ptr, i32, i32 }
%struct.dt_gui_gtk_t = type { ptr, %struct.dt_gui_widgets_t, %struct.dt_gui_scrollbars_t, i32, ptr, i32, [39 x %struct._GdkRGBA], i32, i32, i32, i32, i32, double, double, double, double, ptr, double, double, double, double, i32, i32, [4096 x i8], i32, i32, i32, %struct.dt_pthread_mutex_t }
%struct.dt_gui_widgets_t = type { ptr, ptr, ptr, ptr, i32, i32, i32 }
%struct.dt_gui_scrollbars_t = type { ptr, ptr, i32 }
%struct._GdkRGBA = type { double, double, double, double }

@darktable = external global %struct.darktable_t, align 8
@.str = private unnamed_addr constant [13 x i8] c"local-dialog\00", align 1

; Function Attrs: nounwind uwtable
define ptr @dt_prefs_init_dialog_import(ptr noundef %0) #0 {
  %2 = alloca ptr, align 8
  %3 = alloca ptr, align 8
  %4 = alloca ptr, align 8
  %5 = alloca i32, align 4
  %6 = alloca ptr, align 8
  store ptr %0, ptr %2, align 8, !tbaa !6
  call void @llvm.lifetime.start.p0(i64 8, ptr %3) #10
  %7 = call ptr @gtk_grid_new()
  store ptr %7, ptr %3, align 8, !tbaa !6
  call void @llvm.lifetime.start.p0(i64 8, ptr %4) #10
  %8 = call ptr @gtk_size_group_new(i32 noundef 3)
  store ptr %8, ptr %4, align 8, !tbaa !11
  %9 = load ptr, ptr %3, align 8, !tbaa !6
  %10 = call i64 @gtk_grid_get_type() #11
  %11 = call ptr @g_type_check_instance_cast(ptr noundef %9, i64 noundef %10)
  %12 = load ptr, ptr getelementptr inbounds nuw (%struct.darktable_t, ptr @darktable, i32 0, i32 14), align 8, !tbaa !13
  %13 = getelementptr inbounds nuw %struct.dt_gui_gtk_t, ptr %12, i32 0, i32 18
  %14 = load double, ptr %13, align 8, !tbaa !52
  %15 = fmul reassoc nsz arcp contract afn double 3.000000e+00, %14
  %16 = fptoui double %15 to i32
  call void @gtk_grid_set_row_spacing(ptr noundef %11, i32 noundef %16)
  %17 = load ptr, ptr %3, align 8, !tbaa !6
  %18 = call i64 @gtk_grid_get_type() #11
  %19 = call ptr @g_type_check_instance_cast(ptr noundef %17, i64 noundef %18)
  %20 = load ptr, ptr getelementptr inbounds nuw (%struct.darktable_t, ptr @darktable, i32 0, i32 14), align 8, !tbaa !13
  %21 = getelementptr inbounds nuw %struct.dt_gui_gtk_t, ptr %20, i32 0, i32 18
  %22 = load double, ptr %21, align 8, !tbaa !52
  %23 = fmul reassoc nsz arcp contract afn double 5.000000e+00, %22
  %24 = fptoui double %23 to i32
  call void @gtk_grid_set_column_spacing(ptr noundef %19, i32 noundef %24)
  %25 = load ptr, ptr %3, align 8, !tbaa !6
  call void @gtk_widget_set_valign(ptr noundef %25, i32 noundef 1)
  call void @llvm.lifetime.start.p0(i64 4, ptr %5) #10
  store i32 0, ptr %5, align 4, !tbaa !57
  call void @llvm.lifetime.start.p0(i64 8, ptr %6) #10
  %26 = load ptr, ptr %2, align 8, !tbaa !6
  %27 = call i64 @gtk_dialog_get_type() #11
  %28 = call ptr @g_type_check_instance_cast(ptr noundef %26, i64 noundef %27)
  %29 = call ptr @gtk_dialog_get_content_area(ptr noundef %28)
  store ptr %29, ptr %6, align 8, !tbaa !6
  %30 = load ptr, ptr %2, align 8, !tbaa !6
  %31 = call ptr @g_type_check_instance_cast(ptr noundef %30, i64 noundef 80)
  call void @g_object_set_data(ptr noundef %31, ptr noundef @.str, ptr noundef inttoptr (i64 1 to ptr))
  %32 = load ptr, ptr %4, align 8, !tbaa !11
  call void @g_object_unref(ptr noundef %32)
  %33 = load ptr, ptr %6, align 8, !tbaa !6
  %34 = call i64 @gtk_box_get_type() #11
  %35 = call ptr @g_type_check_instance_cast(ptr noundef %33, i64 noundef %34)
  %36 = load ptr, ptr %3, align 8, !tbaa !6
  call void @gtk_box_pack_start(ptr noundef %35, ptr noundef %36, i32 noundef 0, i32 noundef 0, i32 noundef 0)
  %37 = load ptr, ptr %3, align 8, !tbaa !6
  call void @llvm.lifetime.end.p0(i64 8, ptr %6) #10
  call void @llvm.lifetime.end.p0(i64 4, ptr %5) #10
  call void @llvm.lifetime.end.p0(i64 8, ptr %4) #10
  call void @llvm.lifetime.end.p0(i64 8, ptr %3) #10
  ret ptr %37
}