; Function Attrs: nounwind uwtable
define ptr @dt_prefs_init_dialog_import(ptr noundef %0) local_unnamed_addr #0 {
  %2 = tail call ptr @gtk_grid_new() #12
  %3 = tail call ptr @gtk_size_group_new(i32 noundef 3) #12
  %4 = tail call i64 @gtk_grid_get_type() #13
  %5 = tail call ptr @g_type_check_instance_cast(ptr noundef %2, i64 noundef %4) #12
  %6 = load ptr, ptr getelementptr inbounds nuw (i8, ptr @darktable, i64 104), align 8, !tbaa !6
  %7 = getelementptr inbounds nuw i8, ptr %6, i64 1424
  %8 = load double, ptr %7, align 8, !tbaa !48
  %9 = fmul reassoc nsz arcp contract afn double %8, 3.000000e+00
  %10 = fptoui double %9 to i32
  tail call void @gtk_grid_set_row_spacing(ptr noundef %5, i32 noundef %10) #12
  %11 = tail call ptr @g_type_check_instance_cast(ptr noundef %2, i64 noundef %4) #12
  %12 = load ptr, ptr getelementptr inbounds nuw (i8, ptr @darktable, i64 104), align 8, !tbaa !6
  %13 = getelementptr inbounds nuw i8, ptr %12, i64 1424
  %14 = load double, ptr %13, align 8, !tbaa !48
  %15 = fmul reassoc nsz arcp contract afn double %14, 5.000000e+00
  %16 = fptoui double %15 to i32
  tail call void @gtk_grid_set_column_spacing(ptr noundef %11, i32 noundef %16) #12
  tail call void @gtk_widget_set_valign(ptr noundef %2, i32 noundef 1) #12
  %17 = tail call i64 @gtk_dialog_get_type() #13
  %18 = tail call ptr @g_type_check_instance_cast(ptr noundef %0, i64 noundef %17) #12
  %19 = tail call ptr @gtk_dialog_get_content_area(ptr noundef %18) #12
  %20 = tail call ptr @g_type_check_instance_cast(ptr noundef %0, i64 noundef 80) #12
  tail call void @g_object_set_data(ptr noundef %20, ptr noundef nonnull @.str, ptr noundef nonnull inttoptr (i64 1 to ptr)) #12
  tail call void @g_object_unref(ptr noundef %3) #12
  %21 = tail call i64 @gtk_box_get_type() #13
  %22 = tail call ptr @g_type_check_instance_cast(ptr noundef %19, i64 noundef %21) #12
  tail call void @gtk_box_pack_start(ptr noundef %22, ptr noundef %2, i32 noundef 0, i32 noundef 0, i32 noundef 0) #12
  ret ptr %2
}